target datalayout = "e-m:e-p270:32:32-p271:32:32-p272:64:64-i64:64-i128:128-f80:128-n8:16:32:64-S128"
target triple = "x86_64-pc-linux-gnu"

%struct.mbedtls_entropy_context = type { i32, %struct.mbedtls_sha256_context, i32, [20 x %struct.mbedtls_entropy_source_state] }
%struct.mbedtls_sha256_context = type { [2 x i32], [8 x i32], [64 x i8], i32 }
%struct.mbedtls_entropy_source_state = type { ptr, ptr, i64, i64, i32 }

; Function Attrs: mustprogress uwtable
define internal noundef i32 @_ZL14entropy_updateP23mbedtls_entropy_contexthPKhm(ptr noundef %0, i8 noundef zeroext %1, ptr noundef %2, i64 noundef %3) #0 {
  %5 = alloca ptr, align 8
  %6 = alloca i8, align 1
  %7 = alloca ptr, align 8
  %8 = alloca i64, align 8
  %9 = alloca [2 x i8], align 1
  %10 = alloca [32 x i8], align 16
  %11 = alloca i64, align 8
  %12 = alloca ptr, align 8
  %13 = alloca i32, align 4
  store ptr %0, ptr %5, align 8, !tbaa !3
  store i8 %1, ptr %6, align 1, !tbaa !24
  store ptr %2, ptr %7, align 8, !tbaa !22
  store i64 %3, ptr %8, align 8, !tbaa !14
  call void @llvm.lifetime.start.p0(i64 2, ptr %9) #6
  call void @llvm.lifetime.start.p0(i64 32, ptr %10) #6
  call void @llvm.lifetime.start.p0(i64 8, ptr %11) #6
  %14 = load i64, ptr %8, align 8, !tbaa !14
  store i64 %14, ptr %11, align 8, !tbaa !14
  call void @llvm.lifetime.start.p0(i64 8, ptr %12) #6
  %15 = load ptr, ptr %7, align 8, !tbaa !22
  store ptr %15, ptr %12, align 8, !tbaa !22
  call void @llvm.lifetime.start.p0(i64 4, ptr %13) #6
  store i32 0, ptr %13, align 4, !tbaa !16
  %16 = load i64, ptr %11, align 8, !tbaa !14
  %17 = icmp ugt i64 %16, 32
  br i1 %17, label %18, label %27

18:                                               ; preds = %4
  %19 = load ptr, ptr %7, align 8, !tbaa !22
  %20 = load i64, ptr %8, align 8, !tbaa !14
  %21 = getelementptr inbounds [32 x i8], ptr %10, i64 0, i64 0
  %22 = call i32 @mbedtls_sha256(ptr noundef %19, i64 noundef %20, ptr noundef %21, i32 noundef 0)
  store i32 %22, ptr %13, align 4, !tbaa !16
  %23 = icmp ne i32 %22, 0
  br i1 %23, label %24, label %25

24:                                               ; preds = %18
  br label %60

25:                                               ; preds = %18
  %26 = getelementptr inbounds [32 x i8], ptr %10, i64 0, i64 0
  store ptr %26, ptr %12, align 8, !tbaa !22
  store i64 32, ptr %11, align 8, !tbaa !14
  br label %27

27:                                               ; preds = %25, %4
  %28 = load i8, ptr %6, align 1, !tbaa !24
  %29 = getelementptr inbounds [2 x i8], ptr %9, i64 0, i64 0
  store i8 %28, ptr %29, align 1, !tbaa !24
  %30 = load i64, ptr %11, align 8, !tbaa !14
  %31 = and i64 %30, 255
  %32 = trunc i64 %31 to i8
  %33 = getelementptr inbounds [2 x i8], ptr %9, i64 0, i64 1
  store i8 %32, ptr %33, align 1, !tbaa !24
  %34 = load ptr, ptr %5, align 8, !tbaa !3
  %35 = getelementptr inbounds nuw %struct.mbedtls_entropy_context, ptr %34, i32 0, i32 0
  %36 = load i32, ptr %35, align 8, !tbaa !12
  %37 = icmp eq i32 %36, 0
  br i1 %37, label %38, label %44

38:                                               ; preds = %27
  %39 = load ptr, ptr %5, align 8, !tbaa !3
  %40 = getelementptr inbounds nuw %struct.mbedtls_entropy_context, ptr %39, i32 0, i32 1
  %41 = call i32 @mbedtls_sha256_starts(ptr noundef %40, i32 noundef 0)
  store i32 %41, ptr %13, align 4, !tbaa !16
  %42 = icmp ne i32 %41, 0
  br i1 %42, label %43, label %44

43:                                               ; preds = %38
  br label %60

44:                                               ; preds = %38, %27
  %45 = load ptr, ptr %5, align 8, !tbaa !3
  %46 = getelementptr inbounds nuw %struct.mbedtls_entropy_context, ptr %45, i32 0, i32 0
  store i32 1, ptr %46, align 8, !tbaa !12
  br label %47

47:                                               ; preds = %44
  %48 = load ptr, ptr %5, align 8, !tbaa !3
  %49 = getelementptr inbounds nuw %struct.mbedtls_entropy_context, ptr %48, i32 0, i32 1
  %50 = getelementptr inbounds [2 x i8], ptr %9, i64 0, i64 0
  %51 = call i32 @mbedtls_sha256_update(ptr noundef %49, ptr noundef %50, i64 noundef 2)
  store i32 %51, ptr %13, align 4, !tbaa !16
  %52 = icmp ne i32 %51, 0
  br i1 %52, label %53, label %54

53:                                               ; preds = %47
  br label %60

54:                                               ; preds = %47
  %55 = load ptr, ptr %5, align 8, !tbaa !3
  %56 = getelementptr inbounds nuw %struct.mbedtls_entropy_context, ptr %55, i32 0, i32 1
  %57 = load ptr, ptr %12, align 8, !tbaa !22
  %58 = load i64, ptr %11, align 8, !tbaa !14
  %59 = call i32 @mbedtls_sha256_update(ptr noundef %56, ptr noundef %57, i64 noundef %58)
  store i32 %59, ptr %13, align 4, !tbaa !16
  br label %60

60:                                               ; preds = %54, %53, %43, %24
  %61 = getelementptr inbounds [32 x i8], ptr %10, i64 0, i64 0
  call void @mbedtls_platform_zeroize(ptr noundef %61, i64 noundef 32)
  %62 = load i32, ptr %13, align 4, !tbaa !16
  call void @llvm.lifetime.end.p0(i64 4, ptr %13) #6
  call void @llvm.lifetime.end.p0(i64 8, ptr %12) #6
  call void @llvm.lifetime.end.p0(i64 8, ptr %11) #6
  call void @llvm.lifetime.end.p0(i64 32, ptr %10) #6
  call void @llvm.lifetime.end.p0(i64 2, ptr %9) #6
  ret i32 %62
}