; Function Attrs: mustprogress uwtable
define internal fastcc noundef i32 @_ZL14entropy_updateP23mbedtls_entropy_contexthPKhm(ptr noundef %0, i8 noundef zeroext %1, ptr noundef %2, i64 noundef %3) unnamed_addr #0 {
  %5 = alloca [2 x i8], align 1
  %6 = alloca [32 x i8], align 16
  call void @llvm.lifetime.start.p0(i64 2, ptr nonnull %5) #6
  call void @llvm.lifetime.start.p0(i64 32, ptr nonnull %6) #6
  %7 = icmp ugt i64 %3, 32
  br i1 %7, label %8, label %10

8:                                                ; preds = %4
  %9 = call i32 @mbedtls_sha256(ptr noundef %2, i64 noundef %3, ptr noundef nonnull %6, i32 noundef 0)
  %.not = icmp eq i32 %9, 0
  br i1 %.not, label %10, label %23

10:                                               ; preds = %8, %4
  %.015 = phi i64 [ %3, %4 ], [ 32, %8 ]
  %.014 = phi ptr [ %2, %4 ], [ %6, %8 ]
  store i8 %1, ptr %5, align 1, !tbaa !17
  %11 = trunc nuw nsw i64 %.015 to i8
  %12 = getelementptr inbounds nuw i8, ptr %5, i64 1
  store i8 %11, ptr %12, align 1, !tbaa !17
  %13 = load i32, ptr %0, align 8, !tbaa !9
  %14 = icmp eq i32 %13, 0
  br i1 %14, label %15, label %18

15:                                               ; preds = %10
  %16 = getelementptr inbounds nuw i8, ptr %0, i64 4
  %17 = call i32 @mbedtls_sha256_starts(ptr noundef nonnull %16, i32 noundef 0)
  %.not20 = icmp eq i32 %17, 0
  br i1 %.not20, label %18, label %23

18:                                               ; preds = %15, %10
  store i32 1, ptr %0, align 8, !tbaa !9
  %19 = getelementptr inbounds nuw i8, ptr %0, i64 4
  %20 = call i32 @mbedtls_sha256_update(ptr noundef nonnull %19, ptr noundef nonnull %5, i64 noundef 2)
  %.not21 = icmp eq i32 %20, 0
  br i1 %.not21, label %21, label %23

21:                                               ; preds = %18
  %22 = call i32 @mbedtls_sha256_update(ptr noundef nonnull %19, ptr noundef %.014, i64 noundef %.015)
  br label %23

23:                                               ; preds = %18, %15, %8, %21
  %.0 = phi i32 [ %9, %8 ], [ %17, %15 ], [ %20, %18 ], [ %22, %21 ]
  call void @mbedtls_platform_zeroize(ptr noundef nonnull %6, i64 noundef 32)
  call void @llvm.lifetime.end.p0(i64 32, ptr nonnull %6) #6
  call void @llvm.lifetime.end.p0(i64 2, ptr nonnull %5) #6
  ret i32 %.0
}